; ModuleID = '13/562.c'
source_filename = "13/562.c"
target datalayout = "e-m:e-p270:32:32-p271:32:32-p272:64:64-i64:64-f80:128-n8:16:32:64-S128"
target triple = "x86_64-pc-linux-gnu"

@.str = private unnamed_addr constant [3 x i8] c"%d\00", align 1
@.str.1 = private unnamed_addr constant [4 x i8] c"%d \00", align 1

; Function Attrs: noinline nounwind uwtable
define dso_local void @main() #0 {
  %1 = alloca i32, align 4
  %2 = alloca i32, align 4
  %3 = alloca i32, align 4
  %4 = alloca i32, align 4
  %5 = alloca i32, align 4
  %6 = alloca [20000 x i32], align 16
  %7 = alloca [20000 x i32], align 16
  %8 = call i32 (i8*, ...) @__isoc99_scanf(i8* getelementptr inbounds ([3 x i8], [3 x i8]* @.str, i64 0, i64 0), i32* %5)
  store i32 0, i32* %3, align 4
  br label %9

9:                                                ; preds = %18, %0
  %10 = load i32, i32* %3, align 4
  %11 = load i32, i32* %5, align 4
  %12 = icmp slt i32 %10, %11
  br i1 %12, label %13, label %21

13:                                               ; preds = %9
  %14 = load i32, i32* %3, align 4
  %15 = sext i32 %14 to i64
  %16 = getelementptr inbounds [20000 x i32], [20000 x i32]* %6, i64 0, i64 %15
  %17 = call i32 (i8*, ...) @__isoc99_scanf(i8* getelementptr inbounds ([3 x i8], [3 x i8]* @.str, i64 0, i64 0), i32* %16)
  br label %18

18:                                               ; preds = %13
  %19 = load i32, i32* %3, align 4
  %20 = add nsw i32 %19, 1
  store i32 %20, i32* %3, align 4
  br label %9

21:                                               ; preds = %9
  %22 = load i32, i32* %5, align 4
  %23 = sub nsw i32 %22, 1
  store i32 %23, i32* %3, align 4
  store i32 0, i32* %2, align 4
  br label %24

24:                                               ; preds = %64, %21
  %25 = load i32, i32* %3, align 4
  %26 = icmp sge i32 %25, 0
  br i1 %26, label %27, label %67

27:                                               ; preds = %24
  store i32 0, i32* %1, align 4
  %28 = load i32, i32* %3, align 4
  %29 = sub nsw i32 %28, 1
  store i32 %29, i32* %4, align 4
  br label %30

30:                                               ; preds = %47, %27
  %31 = load i32, i32* %4, align 4
  %32 = icmp sge i32 %31, 0
  br i1 %32, label %33, label %50

33:                                               ; preds = %30
  %34 = load i32, i32* %3, align 4
  %35 = sext i32 %34 to i64
  %36 = getelementptr inbounds [20000 x i32], [20000 x i32]* %6, i64 0, i64 %35
  %37 = load i32, i32* %36, align 4
  %38 = load i32, i32* %4, align 4
  %39 = sext i32 %38 to i64
  %40 = getelementptr inbounds [20000 x i32], [20000 x i32]* %6, i64 0, i64 %39
  %41 = load i32, i32* %40, align 4
  %42 = icmp eq i32 %37, %41
  br i1 %42, label %43, label %46

43:                                               ; preds = %33
  %44 = load i32, i32* %1, align 4
  %45 = add nsw i32 %44, 1
  store i32 %45, i32* %1, align 4
  br label %46

46:                                               ; preds = %43, %33
  br label %47

47:                                               ; preds = %46
  %48 = load i32, i32* %4, align 4
  %49 = add nsw i32 %48, -1
  store i32 %49, i32* %4, align 4
  br label %30

50:                                               ; preds = %30
  %51 = load i32, i32* %1, align 4
  %52 = icmp eq i32 %51, 0
  br i1 %52, label %53, label %63

53:                                               ; preds = %50
  %54 = load i32, i32* %3, align 4
  %55 = sext i32 %54 to i64
  %56 = getelementptr inbounds [20000 x i32], [20000 x i32]* %6, i64 0, i64 %55
  %57 = load i32, i32* %56, align 4
  %58 = load i32, i32* %2, align 4
  %59 = sext i32 %58 to i64
  %60 = getelementptr inbounds [20000 x i32], [20000 x i32]* %7, i64 0, i64 %59
  store i32 %57, i32* %60, align 4
  %61 = load i32, i32* %2, align 4
  %62 = add nsw i32 %61, 1
  store i32 %62, i32* %2, align 4
  br label %63

63:                                               ; preds = %53, %50
  br label %64

64:                                               ; preds = %63
  %65 = load i32, i32* %3, align 4
  %66 = add nsw i32 %65, -1
  store i32 %66, i32* %3, align 4
  br label %24

67:                                               ; preds = %24
  %68 = load i32, i32* %2, align 4
  %69 = sext i32 %68 to i64
  %70 = getelementptr inbounds [20000 x i32], [20000 x i32]* %7, i64 0, i64 %69
  store i32 0, i32* %70, align 4
  %71 = load i32, i32* %2, align 4
  %72 = sub nsw i32 %71, 1
  store i32 %72, i32* %5, align 4
  br label %73

73:                                               ; preds = %82, %67
  %74 = load i32, i32* %5, align 4
  %75 = icmp sgt i32 %74, 0
  br i1 %75, label %76, label %85

76:                                               ; preds = %73
  %77 = load i32, i32* %5, align 4
  %78 = sext i32 %77 to i64
  %79 = getelementptr inbounds [20000 x i32], [20000 x i32]* %7, i64 0, i64 %78
  %80 = load i32, i32* %79, align 4
  %81 = call i32 (i8*, ...) @printf(i8* getelementptr inbounds ([4 x i8], [4 x i8]* @.str.1, i64 0, i64 0), i32 %80)
  br label %82

82:                                               ; preds = %76
  %83 = load i32, i32* %5, align 4
  %84 = add nsw i32 %83, -1
  store i32 %84, i32* %5, align 4
  br label %73

85:                                               ; preds = %73
  %86 = getelementptr inbounds [20000 x i32], [20000 x i32]* %7, i64 0, i64 0
  %87 = load i32, i32* %86, align 16
  %88 = call i32 (i8*, ...) @printf(i8* getelementptr inbounds ([3 x i8], [3 x i8]* @.str, i64 0, i64 0), i32 %87)
  ret void
}

declare dso_local i32 @__isoc99_scanf(i8*, ...) #1

declare dso_local i32 @printf(i8*, ...) #1


!llvm.module.flags = !{!0}
!llvm.ident = !{!1}

!0 = !{i32 1, !"wchar_size", i32 4}
!1 = !{!"clang version 10.0.0-4ubuntu1 "}
